; Function Attrs: mustprogress uwtable
define noundef nonnull align 8 dereferenceable(72) ptr @_ZN3net22CryptoHandshakeMessageaSERKS0_(ptr noundef nonnull returned align 8 dereferenceable(72) initializes((0, 4)) %0, ptr noundef nonnull align 8 dereferenceable(72) %1) local_unnamed_addr #1 align 2 personality ptr @__gxx_personality_v0 {
  %3 = load i32, ptr %1, align 8, !tbaa !3
  store i32 %3, ptr %0, align 8, !tbaa !3
  %4 = getelementptr inbounds nuw i8, ptr %1, i64 8
  %5 = getelementptr inbounds nuw i8, ptr %0, i64 8
  %6 = tail call noundef nonnull align 8 dereferenceable(48) ptr @_ZNSt8_Rb_treeIjSt4pairIKjNSt7__cxx1112basic_stringIcSt11char_traitsIcESaIcEEEESt10_Select1stIS8_ESt4lessIjESaIS8_EEaSERKSE_(ptr noundef nonnull align 8 dereferenceable(48) %5, ptr noundef nonnull align 8 dereferenceable(48) %4)
  %7 = getelementptr inbounds nuw i8, ptr %0, i64 64
  %8 = load ptr, ptr %7, align 8, !tbaa !42
  store ptr null, ptr %7, align 8, !tbaa !42
  %.not.i.i = icmp eq ptr %8, null
  br i1 %.not.i.i, label %_ZNSt10unique_ptrIN3net8QuicDataESt14default_deleteIS1_EE5resetEPS1_.exit, label %_ZNKSt14default_deleteIN3net8QuicDataEEclEPS1_.exit.i.i

_ZNKSt14default_deleteIN3net8QuicDataEEclEPS1_.exit.i.i: ; preds = %2
  %9 = load ptr, ptr %8, align 8, !tbaa !43
  %10 = getelementptr inbounds nuw i8, ptr %9, i64 8
  %11 = load ptr, ptr %10, align 8
  tail call void %11(ptr noundef nonnull align 8 dereferenceable(25) %8) #22
  br label %_ZNSt10unique_ptrIN3net8QuicDataESt14default_deleteIS1_EE5resetEPS1_.exit

_ZNSt10unique_ptrIN3net8QuicDataESt14default_deleteIS1_EE5resetEPS1_.exit: ; preds = %2, %_ZNKSt14default_deleteIN3net8QuicDataEEclEPS1_.exit.i.i
  %12 = getelementptr inbounds nuw i8, ptr %1, i64 56
  %13 = load i64, ptr %12, align 8, !tbaa !39
  %14 = getelementptr inbounds nuw i8, ptr %0, i64 56
  store i64 %13, ptr %14, align 8, !tbaa !39
  ret ptr %0
}